; Function Attrs: mustprogress uwtable
define hidden void @_ZNK4cvc58internal13DeltaRational24euclidianDivideRemainderERKS1_(ptr dead_on_unwind noalias writable sret(%"class.cvc5::internal::Integer") align 8 %0, ptr noundef nonnull align 8 dereferenceable(64) %1, ptr noundef nonnull align 8 dereferenceable(64) %2) local_unnamed_addr #0 align 2 personality ptr @__gxx_personality_v0 {
  %4 = alloca %"class.cvc5::internal::Integer", align 8
  %5 = alloca %"class.cvc5::internal::Integer", align 8
  %6 = getelementptr inbounds nuw i8, ptr %1, i64 36
  %7 = load i32, ptr %6, align 4, !tbaa !26
  %.not.i.i.i = icmp eq i32 %7, 0
  br i1 %.not.i.i.i, label %_ZNK4cvc58internal13DeltaRational10isIntegralEv.exit, label %_ZNK4cvc58internal13DeltaRational10isIntegralEv.exit.thread

_ZNK4cvc58internal13DeltaRational10isIntegralEv.exit: ; preds = %3
  %8 = getelementptr inbounds nuw i8, ptr %1, i64 16
  %9 = tail call i32 @__gmpz_cmp_ui(ptr noundef nonnull %8, i64 noundef 1) #18
  %10 = icmp eq i32 %9, 0
  %11 = getelementptr inbounds nuw i8, ptr %2, i64 36
  %12 = load i32, ptr %11, align 4
  %.not.i.i.i9 = icmp eq i32 %12, 0
  %or.cond = select i1 %10, i1 %.not.i.i.i9, i1 false
  br i1 %or.cond, label %_ZNK4cvc58internal13DeltaRational10isIntegralEv.exit11, label %_ZNK4cvc58internal13DeltaRational10isIntegralEv.exit.thread

_ZNK4cvc58internal13DeltaRational10isIntegralEv.exit11: ; preds = %_ZNK4cvc58internal13DeltaRational10isIntegralEv.exit
  %13 = getelementptr inbounds nuw i8, ptr %2, i64 16
  %14 = tail call i32 @__gmpz_cmp_ui(ptr noundef nonnull %13, i64 noundef 1) #18
  %15 = icmp eq i32 %14, 0
  br i1 %15, label %16, label %_ZNK4cvc58internal13DeltaRational10isIntegralEv.exit.thread

16:                                               ; preds = %_ZNK4cvc58internal13DeltaRational10isIntegralEv.exit11
  call void @llvm.lifetime.start.p0(i64 16, ptr nonnull %4) #15
  call void @_ZNK4cvc58internal13DeltaRational5floorEv(ptr dead_on_unwind nonnull writable sret(%"class.cvc5::internal::Integer") align 8 %4, ptr noundef nonnull align 8 dereferenceable(64) %1)
  call void @llvm.lifetime.start.p0(i64 16, ptr nonnull %5) #15
  invoke void @_ZNK4cvc58internal13DeltaRational5floorEv(ptr dead_on_unwind nonnull writable sret(%"class.cvc5::internal::Integer") align 8 %5, ptr noundef nonnull align 8 dereferenceable(64) %2)
          to label %17 unwind label %25

17:                                               ; preds = %16
  invoke void @_ZNK4cvc58internal7Integer24euclidianDivideRemainderERKS1_(ptr dead_on_unwind writable sret(%"class.cvc5::internal::Integer") align 8 %0, ptr noundef nonnull align 8 dereferenceable(16) %4, ptr noundef nonnull align 8 dereferenceable(16) %5)
          to label %18 unwind label %27

18:                                               ; preds = %17
  invoke void @__gmpz_clear(ptr noundef nonnull align 8 dereferenceable(16) %5)
          to label %_ZN4cvc58internal7IntegerD2Ev.exit unwind label %19

19:                                               ; preds = %18
  %20 = landingpad { ptr, i32 }
          catch ptr null
  %21 = extractvalue { ptr, i32 } %20, 0
  call void @__clang_call_terminate(ptr %21) #19
  unreachable

_ZN4cvc58internal7IntegerD2Ev.exit:               ; preds = %18
  call void @llvm.lifetime.end.p0(i64 16, ptr nonnull %5) #15
  invoke void @__gmpz_clear(ptr noundef nonnull align 8 dereferenceable(16) %4)
          to label %_ZN4cvc58internal7IntegerD2Ev.exit12 unwind label %22

22:                                               ; preds = %_ZN4cvc58internal7IntegerD2Ev.exit
  %23 = landingpad { ptr, i32 }
          catch ptr null
  %24 = extractvalue { ptr, i32 } %23, 0
  call void @__clang_call_terminate(ptr %24) #19
  unreachable

_ZN4cvc58internal7IntegerD2Ev.exit12:             ; preds = %_ZN4cvc58internal7IntegerD2Ev.exit
  call void @llvm.lifetime.end.p0(i64 16, ptr nonnull %4) #15
  ret void

25:                                               ; preds = %16
  %26 = landingpad { ptr, i32 }
          cleanup
  br label %_ZN4cvc58internal7IntegerD2Ev.exit13

27:                                               ; preds = %17
  %28 = landingpad { ptr, i32 }
          cleanup
  invoke void @__gmpz_clear(ptr noundef nonnull align 8 dereferenceable(16) %5)
          to label %_ZN4cvc58internal7IntegerD2Ev.exit13 unwind label %29

29:                                               ; preds = %27
  %30 = landingpad { ptr, i32 }
          catch ptr null
  %31 = extractvalue { ptr, i32 } %30, 0
  call void @__clang_call_terminate(ptr %31) #19
  unreachable

_ZN4cvc58internal7IntegerD2Ev.exit13:             ; preds = %27, %25
  %.pn = phi { ptr, i32 } [ %26, %25 ], [ %28, %27 ]
  call void @llvm.lifetime.end.p0(i64 16, ptr nonnull %5) #15
  invoke void @__gmpz_clear(ptr noundef nonnull align 8 dereferenceable(16) %4)
          to label %_ZN4cvc58internal7IntegerD2Ev.exit14 unwind label %32

32:                                               ; preds = %_ZN4cvc58internal7IntegerD2Ev.exit13
  %33 = landingpad { ptr, i32 }
          catch ptr null
  %34 = extractvalue { ptr, i32 } %33, 0
  call void @__clang_call_terminate(ptr %34) #19
  unreachable

_ZN4cvc58internal7IntegerD2Ev.exit14:             ; preds = %_ZN4cvc58internal7IntegerD2Ev.exit13
  call void @llvm.lifetime.end.p0(i64 16, ptr nonnull %4) #15
  br label %39

_ZNK4cvc58internal13DeltaRational10isIntegralEv.exit.thread: ; preds = %3, %_ZNK4cvc58internal13DeltaRational10isIntegralEv.exit11, %_ZNK4cvc58internal13DeltaRational10isIntegralEv.exit
  %35 = tail call ptr @__cxa_allocate_exception(i64 40) #15
  invoke void @_ZN4cvc58internal22DeltaRationalExceptionC2EPKcRKNS0_13DeltaRationalES6_(ptr noundef nonnull align 8 dereferenceable(40) %35, ptr noundef nonnull @.str.8, ptr noundef nonnull align 8 dereferenceable(64) %1, ptr noundef nonnull align 8 dereferenceable(64) %2)
          to label %36 unwind label %37

36:                                               ; preds = %_ZNK4cvc58internal13DeltaRational10isIntegralEv.exit.thread
  tail call void @__cxa_throw(ptr nonnull %35, ptr nonnull @_ZTIN4cvc58internal22DeltaRationalExceptionE, ptr nonnull @_ZN4cvc58internal22DeltaRationalExceptionD2Ev) #16
  unreachable

37:                                               ; preds = %_ZNK4cvc58internal13DeltaRational10isIntegralEv.exit.thread
  %38 = landingpad { ptr, i32 }
          cleanup
  tail call void @__cxa_free_exception(ptr nonnull %35) #15
  br label %39

39:                                               ; preds = %37, %_ZN4cvc58internal7IntegerD2Ev.exit14
  %.pn.pn = phi { ptr, i32 } [ %.pn, %_ZN4cvc58internal7IntegerD2Ev.exit14 ], [ %38, %37 ]
  resume { ptr, i32 } %.pn.pn
}